; ModuleID = '50/2239.c'
source_filename = "50/2239.c"
target datalayout = "e-m:e-p270:32:32-p271:32:32-p272:64:64-i64:64-f80:128-n8:16:32:64-S128"
target triple = "x86_64-pc-linux-gnu"

@.str = private unnamed_addr constant [3 x i8] c"%d\00", align 1
@.str.1 = private unnamed_addr constant [4 x i8] c"%d\0A\00", align 1

; Function Attrs: noinline nounwind uwtable
define dso_local i32 @main() #0 {
  %1 = alloca i32, align 4
  %2 = alloca i32, align 4
  %3 = alloca i32, align 4
  %4 = alloca i32, align 4
  %5 = alloca i32, align 4
  %6 = alloca [13 x i32], align 16
  %7 = alloca i32, align 4
  store i32 0, i32* %1, align 4
  %8 = call i32 (i8*, ...) @__isoc99_scanf(i8* getelementptr inbounds ([3 x i8], [3 x i8]* @.str, i64 0, i64 0), i32* %2)
  %9 = getelementptr inbounds [13 x i32], [13 x i32]* %6, i64 0, i64 1
  store i32 31, i32* %9, align 4
  %10 = getelementptr inbounds [13 x i32], [13 x i32]* %6, i64 0, i64 3
  store i32 31, i32* %10, align 4
  %11 = getelementptr inbounds [13 x i32], [13 x i32]* %6, i64 0, i64 5
  store i32 31, i32* %11, align 4
  %12 = getelementptr inbounds [13 x i32], [13 x i32]* %6, i64 0, i64 7
  store i32 31, i32* %12, align 4
  %13 = getelementptr inbounds [13 x i32], [13 x i32]* %6, i64 0, i64 8
  store i32 31, i32* %13, align 16
  %14 = getelementptr inbounds [13 x i32], [13 x i32]* %6, i64 0, i64 10
  store i32 31, i32* %14, align 8
  %15 = getelementptr inbounds [13 x i32], [13 x i32]* %6, i64 0, i64 12
  store i32 31, i32* %15, align 16
  %16 = getelementptr inbounds [13 x i32], [13 x i32]* %6, i64 0, i64 2
  store i32 28, i32* %16, align 8
  %17 = getelementptr inbounds [13 x i32], [13 x i32]* %6, i64 0, i64 4
  store i32 30, i32* %17, align 16
  %18 = getelementptr inbounds [13 x i32], [13 x i32]* %6, i64 0, i64 6
  store i32 30, i32* %18, align 8
  %19 = getelementptr inbounds [13 x i32], [13 x i32]* %6, i64 0, i64 9
  store i32 30, i32* %19, align 4
  %20 = getelementptr inbounds [13 x i32], [13 x i32]* %6, i64 0, i64 11
  store i32 30, i32* %20, align 4
  store i32 1, i32* %4, align 4
  br label %21

21:                                               ; preds = %51, %0
  %22 = load i32, i32* %4, align 4
  %23 = icmp sle i32 %22, 12
  br i1 %23, label %24, label %54

24:                                               ; preds = %21
  store i32 12, i32* %7, align 4
  store i32 1, i32* %3, align 4
  br label %25

25:                                               ; preds = %36, %24
  %26 = load i32, i32* %3, align 4
  %27 = load i32, i32* %4, align 4
  %28 = icmp slt i32 %26, %27
  br i1 %28, label %29, label %39

29:                                               ; preds = %25
  %30 = load i32, i32* %3, align 4
  %31 = sext i32 %30 to i64
  %32 = getelementptr inbounds [13 x i32], [13 x i32]* %6, i64 0, i64 %31
  %33 = load i32, i32* %32, align 4
  %34 = load i32, i32* %7, align 4
  %35 = add nsw i32 %34, %33
  store i32 %35, i32* %7, align 4
  br label %36

36:                                               ; preds = %29
  %37 = load i32, i32* %3, align 4
  %38 = add nsw i32 %37, 1
  store i32 %38, i32* %3, align 4
  br label %25

39:                                               ; preds = %25
  %40 = load i32, i32* %7, align 4
  %41 = srem i32 %40, 7
  store i32 %41, i32* %5, align 4
  %42 = load i32, i32* %2, align 4
  %43 = load i32, i32* %5, align 4
  %44 = add nsw i32 %42, %43
  %45 = srem i32 %44, 7
  %46 = icmp eq i32 %45, 5
  br i1 %46, label %47, label %50

47:                                               ; preds = %39
  %48 = load i32, i32* %4, align 4
  %49 = call i32 (i8*, ...) @printf(i8* getelementptr inbounds ([4 x i8], [4 x i8]* @.str.1, i64 0, i64 0), i32 %48)
  br label %50

50:                                               ; preds = %47, %39
  br label %51

51:                                               ; preds = %50
  %52 = load i32, i32* %4, align 4
  %53 = add nsw i32 %52, 1
  store i32 %53, i32* %4, align 4
  br label %21

54:                                               ; preds = %21
  ret i32 0
}

declare dso_local i32 @__isoc99_scanf(i8*, ...) #1

declare dso_local i32 @printf(i8*, ...) #1


!llvm.module.flags = !{!0}
!llvm.ident = !{!1}

!0 = !{i32 1, !"wchar_size", i32 4}
!1 = !{!"clang version 10.0.0-4ubuntu1 "}
